; Function Attrs: mustprogress nofree norecurse nosync nounwind null_pointer_is_valid sspstrong willreturn memory(argmem: read) uwtable
define internal i32 @rpc_proc_hash(ptr noundef readonly captures(none) %0) #8 {
  %2 = load i32, ptr %0, align 4
  %3 = getelementptr inbounds nuw i8, ptr %0, i64 4
  %4 = load i32, ptr %3, align 4
  %5 = shl i32 %4, 16
  %6 = xor i32 %5, %2
  %7 = getelementptr inbounds nuw i8, ptr %0, i64 8
  %8 = load i32, ptr %7, align 4
  %9 = shl i32 %8, 24
  %10 = xor i32 %6, %9
  ret i32 %10
}